target datalayout = "e-m:e-p270:32:32-p271:32:32-p272:64:64-i64:64-i128:128-f80:128-n8:16:32:64-S128"
target triple = "x86_64-unknown-linux-gnu"

%struct.emitter_s = type { i32, ptr, ptr, i32, i8, i8 }
%struct.__va_list_tag = type { i32, i32, ptr, ptr }

; Function Attrs: nounwind uwtable
define internal void @emitter_table_printf(ptr noundef %emitter, ptr noundef %format, ...) #0 {
entry:
  %emitter.addr = alloca ptr, align 8
  %format.addr = alloca ptr, align 8
  %ap = alloca [1 x %struct.__va_list_tag], align 16
  store ptr %emitter, ptr %emitter.addr, align 8
  store ptr %format, ptr %format.addr, align 8
  %0 = load ptr, ptr %emitter.addr, align 8
  %output = getelementptr inbounds %struct.emitter_s, ptr %0, i32 0, i32 0
  %1 = load i32, ptr %output, align 8
  %cmp = icmp eq i32 %1, 2
  br i1 %cmp, label %if.then, label %if.end

if.then:                                          ; preds = %entry
  %arraydecay = getelementptr inbounds [1 x %struct.__va_list_tag], ptr %ap, i64 0, i64 0
  call void @llvm.va_start.p0(ptr %arraydecay)
  %2 = load ptr, ptr %emitter.addr, align 8
  %write_cb = getelementptr inbounds %struct.emitter_s, ptr %2, i32 0, i32 1
  %3 = load ptr, ptr %write_cb, align 8
  %4 = load ptr, ptr %emitter.addr, align 8
  %cbopaque = getelementptr inbounds %struct.emitter_s, ptr %4, i32 0, i32 2
  %5 = load ptr, ptr %cbopaque, align 8
  %6 = load ptr, ptr %format.addr, align 8
  %arraydecay1 = getelementptr inbounds [1 x %struct.__va_list_tag], ptr %ap, i64 0, i64 0
  call void @malloc_vcprintf(ptr noundef %3, ptr noundef %5, ptr noundef %6, ptr noundef %arraydecay1)
  %arraydecay2 = getelementptr inbounds [1 x %struct.__va_list_tag], ptr %ap, i64 0, i64 0
  call void @llvm.va_end.p0(ptr %arraydecay2)
  br label %if.end

if.end:                                           ; preds = %if.then, %entry
  ret void
}