; Function Attrs: nounwind uwtable
define internal void @emitter_table_printf(ptr nocapture noundef readonly %emitter, ptr noundef %format, ...) unnamed_addr #0 {
entry:
  %ap = alloca [1 x %struct.__va_list_tag], align 16
  %0 = load i32, ptr %emitter, align 8
  %cmp = icmp eq i32 %0, 2
  br i1 %cmp, label %if.then, label %if.end

if.then:                                          ; preds = %entry
  call void @llvm.va_start.p0(ptr nonnull %ap)
  %write_cb = getelementptr inbounds i8, ptr %emitter, i64 8
  %1 = load ptr, ptr %write_cb, align 8
  %cbopaque = getelementptr inbounds i8, ptr %emitter, i64 16
  %2 = load ptr, ptr %cbopaque, align 8
  call void @malloc_vcprintf(ptr noundef %1, ptr noundef %2, ptr noundef %format, ptr noundef nonnull %ap) #13
  call void @llvm.va_end.p0(ptr nonnull %ap)
  br label %if.end

if.end:                                           ; preds = %if.then, %entry
  ret void
}